target datalayout = "e-m:e-p270:32:32-p271:32:32-p272:64:64-i64:64-i128:128-f80:128-n8:16:32:64-S128"
target triple = "x86_64-pc-linux-gnu"

%"class.cv::details::TlsAbstraction" = type <{ i32, %"struct.std::atomic", [3 x i8] }>
%"struct.std::atomic" = type { %"struct.std::__atomic_base" }
%"struct.std::__atomic_base" = type { i8 }

@_ZN2cv13__terminationE = global i8 0, align 1
@stderr = external global ptr, align 8
@.str.59 = private unnamed_addr constant [83 x i8] c"OpenCV ERROR: TlsAbstraction::~TlsAbstraction(): pthread_key_delete() call failed\0A\00", align 1

; Function Attrs: noinline noreturn nounwind uwtable
define linkonce_odr hidden void @__clang_call_terminate(ptr noundef %0) #17 comdat {
  %2 = call ptr @__cxa_begin_catch(ptr %0) #3
  call void @_ZSt9terminatev() #30
  unreachable
}

; Function Attrs: mustprogress nounwind uwtable
define linkonce_odr noundef i32 @_ZStanSt12memory_orderSt23__memory_order_modifier(i32 noundef %0, i32 noundef %1) #5 comdat {
  %3 = alloca i32, align 4
  %4 = alloca i32, align 4
  store i32 %0, ptr %3, align 4, !tbaa !219
  store i32 %1, ptr %4, align 4, !tbaa !221
  %5 = load i32, ptr %3, align 4, !tbaa !219
  %6 = load i32, ptr %4, align 4, !tbaa !221
  %7 = and i32 %5, %6
  ret i32 %7
}

; Function Attrs: alwaysinline mustprogress nounwind uwtable
define linkonce_odr hidden void @_ZNSt13__atomic_baseIbE5storeEbSt12memory_order(ptr noundef nonnull align 1 dereferenceable(1) %0, i1 noundef zeroext %1, i32 noundef %2) #21 comdat align 2 personality ptr @__gxx_personality_v0 {
  %4 = alloca ptr, align 8
  %5 = alloca i8, align 1
  %6 = alloca i32, align 4
  %7 = alloca i32, align 4
  %8 = alloca i8, align 1
  store ptr %0, ptr %4, align 8, !tbaa !216
  %9 = zext i1 %1 to i8
  store i8 %9, ptr %5, align 1, !tbaa !8
  store i32 %2, ptr %6, align 4, !tbaa !219
  %10 = load ptr, ptr %4, align 8
  call void @llvm.lifetime.start.p0(i64 4, ptr %7) #3
  %11 = load i32, ptr %6, align 4, !tbaa !219
  %12 = invoke noundef i32 @_ZStanSt12memory_orderSt23__memory_order_modifier(i32 noundef %11, i32 noundef 65535)
          to label %13 unwind label %35

13:                                               ; preds = %3
  store i32 %12, ptr %7, align 4, !tbaa !219
  br label %14

14:                                               ; preds = %13
  br label %15

15:                                               ; preds = %14
  br label %16

16:                                               ; preds = %15
  br label %17

17:                                               ; preds = %16
  br label %18

18:                                               ; preds = %17
  br label %19

19:                                               ; preds = %18
  br label %20

20:                                               ; preds = %19
  br label %21

21:                                               ; preds = %20
  br label %22

22:                                               ; preds = %21
  %23 = getelementptr inbounds nuw %"struct.std::__atomic_base", ptr %10, i32 0, i32 0
  %24 = load i32, ptr %6, align 4, !tbaa !219
  %25 = load i8, ptr %5, align 1, !tbaa !8, !range !30, !noundef !31
  %26 = trunc i8 %25 to i1
  %27 = zext i1 %26 to i8
  store i8 %27, ptr %8, align 1, !tbaa !8
  switch i32 %24, label %28 [
    i32 3, label %30
    i32 5, label %32
  ]

28:                                               ; preds = %22
  %29 = load i8, ptr %8, align 1
  store atomic i8 %29, ptr %23 monotonic, align 1
  br label %34

30:                                               ; preds = %22
  %31 = load i8, ptr %8, align 1
  store atomic i8 %31, ptr %23 release, align 1
  br label %34

32:                                               ; preds = %22
  %33 = load i8, ptr %8, align 1
  store atomic i8 %33, ptr %23 seq_cst, align 1
  br label %34

34:                                               ; preds = %32, %30, %28
  call void @llvm.lifetime.end.p0(i64 4, ptr %7) #3
  ret void

35:                                               ; preds = %3
  %36 = landingpad { ptr, i32 }
          catch ptr null
  %37 = extractvalue { ptr, i32 } %36, 0
  call void @__clang_call_terminate(ptr %37) #30
  unreachable
}

; Function Attrs: mustprogress nounwind uwtable
define linkonce_odr hidden noundef zeroext i1 @_ZNSt13__atomic_baseIbEaSEb(ptr noundef nonnull align 1 dereferenceable(1) %0, i1 noundef zeroext %1) #5 comdat align 2 {
  %3 = alloca ptr, align 8
  %4 = alloca i8, align 1
  store ptr %0, ptr %3, align 8, !tbaa !216
  %5 = zext i1 %1 to i8
  store i8 %5, ptr %4, align 1, !tbaa !8
  %6 = load ptr, ptr %3, align 8
  %7 = load i8, ptr %4, align 1, !tbaa !8, !range !30, !noundef !31
  %8 = trunc i8 %7 to i1
  call void @_ZNSt13__atomic_baseIbE5storeEbSt12memory_order(ptr noundef nonnull align 1 dereferenceable(1) %6, i1 noundef zeroext %8, i32 noundef 5) #3
  %9 = load i8, ptr %4, align 1, !tbaa !8, !range !30, !noundef !31
  %10 = trunc i8 %9 to i1
  ret i1 %10
}

; Function Attrs: mustprogress nounwind uwtable
define linkonce_odr hidden noundef zeroext i1 @_ZNSt6atomicIbEaSEb(ptr noundef nonnull align 1 dereferenceable(1) %0, i1 noundef zeroext %1) #5 comdat align 2 {
  %3 = alloca ptr, align 8
  %4 = alloca i8, align 1
  store ptr %0, ptr %3, align 8, !tbaa !97
  %5 = zext i1 %1 to i8
  store i8 %5, ptr %4, align 1, !tbaa !8
  %6 = load ptr, ptr %3, align 8
  %7 = getelementptr inbounds nuw %"struct.std::atomic", ptr %6, i32 0, i32 0
  %8 = load i8, ptr %4, align 1, !tbaa !8, !range !30, !noundef !31
  %9 = trunc i8 %8 to i1
  %10 = call noundef zeroext i1 @_ZNSt13__atomic_baseIbEaSEb(ptr noundef nonnull align 1 dereferenceable(1) %7, i1 noundef zeroext %9) #3
  ret i1 %10
}

; Function Attrs: mustprogress uwtable
define hidden void @_ZN2cv7details14TlsAbstraction22releaseSystemResourcesEv(ptr noundef nonnull align 4 dereferenceable(5) %0) #4 align 2 {
  %2 = alloca ptr, align 8
  store ptr %0, ptr %2, align 8, !tbaa !95
  %3 = load ptr, ptr %2, align 8
  store i8 1, ptr @_ZN2cv13__terminationE, align 1, !tbaa !8
  %4 = getelementptr inbounds nuw %"class.cv::details::TlsAbstraction", ptr %3, i32 0, i32 1
  %5 = call noundef zeroext i1 @_ZNSt6atomicIbEaSEb(ptr noundef nonnull align 1 dereferenceable(1) %4, i1 noundef zeroext true) #3
  %6 = getelementptr inbounds nuw %"class.cv::details::TlsAbstraction", ptr %3, i32 0, i32 0
  %7 = load i32, ptr %6, align 4, !tbaa !99
  %8 = call i32 @pthread_key_delete(i32 noundef %7) #3
  %9 = icmp ne i32 %8, 0
  br i1 %9, label %10, label %15

10:                                               ; preds = %1
  %11 = load ptr, ptr @stderr, align 8, !tbaa !89
  %12 = call i32 (ptr, ptr, ...) @fprintf(ptr noundef %11, ptr noundef @.str.59) #3
  %13 = load ptr, ptr @stderr, align 8, !tbaa !89
  %14 = call i32 @fflush(ptr noundef %13)
  br label %15

15:                                               ; preds = %10, %1
  ret void
}