; Function Attrs: mustprogress nounwind uwtable
define hidden void @_ZN2cv7details14TlsAbstraction22releaseSystemResourcesEv(ptr noundef nonnull align 4 captures(none) dereferenceable(5) %0) local_unnamed_addr #9 align 2 personality ptr @__gxx_personality_v0 {
  store i8 1, ptr @_ZN2cv13__terminationE, align 1, !tbaa !14
  %2 = getelementptr inbounds nuw i8, ptr %0, i64 4
  store atomic i8 1, ptr %2 seq_cst, align 4
  %3 = load i32, ptr %0, align 4, !tbaa !122
  %4 = tail call i32 @pthread_key_delete(i32 noundef %3) #34
  %.not = icmp eq i32 %4, 0
  br i1 %.not, label %10, label %5

5:                                                ; preds = %1
  %6 = load ptr, ptr @stderr, align 8, !tbaa !116
  %7 = tail call i64 @fwrite(ptr nonnull @.str.59, i64 82, i64 1, ptr %6) #55
  %8 = load ptr, ptr @stderr, align 8, !tbaa !116
  %9 = tail call i32 @fflush(ptr noundef %8)
  br label %10

10:                                               ; preds = %5, %1
  ret void
}